

Microchip Technology PIC18 LITE Macro Assembler V1.34 build -361300703 
                                                                                               Tue Dec 04 23:16:52 2018

Microchip Technology Omniscient Code Generator (Lite mode) build 201502162209
     1                           	processor	18F45K20
     2                           	fnconf	param0,??,?,0
     3                           	opt	pw 120
     4                           	opt	lm
     5                           	psect	smallconst,global,reloc=2,class=SMALLCONST,delta=1
     6                           	psect	cinit,global,reloc=2,class=CODE,delta=1
     7                           	psect	bssCOMRAM,global,class=COMRAM,space=1,delta=1
     8                           	psect	bssBANK0,global,class=BANK0,space=1,delta=1
     9                           	psect	cstackBANK0,global,class=BANK0,space=1,delta=1
    10                           	psect	cstackCOMRAM,global,class=COMRAM,space=1,delta=1
    11                           	psect	text0,global,reloc=2,class=CODE,delta=1
    12                           	psect	text1,global,reloc=2,class=CODE,delta=1
    13                           	psect	text2,global,reloc=2,class=CODE,delta=1
    14                           	psect	text3,global,reloc=2,class=CODE,delta=1
    15                           	psect	text4,global,reloc=2,class=CODE,delta=1
    16                           	psect	text5,global,reloc=2,class=CODE,delta=1
    17                           	psect	intcodelo,global,reloc=2,class=CODE,delta=1
    18                           	psect	intcode,global,reloc=2,class=CODE,delta=1
    19                           	psect	intcode_body,global,reloc=2,class=CODE,delta=1
    20                           	psect	intsave_regs,global,class=BIGRAM,space=1,delta=1
    21                           	psect	param0,global,class=BANK0,space=1,delta=1
    22  0000                     
    23                           	psect	smallconst
    24  000600                     __psmallconst:
    25                           	opt stack 0
    26  000600  00                 	db	0
    27  000601  0000               	dw	0
    28  000603  3F80               	dw	16256
    29  000605  7218               	dw	29208
    30  000607  3F31               	dw	16177
    31  000609  FDF0               	dw	65008
    32  00060B  3E75               	dw	15989
    33  00060D  5847               	dw	22599
    34  00060F  3D63               	dw	15715
    35  000611  9558               	dw	38232
    36  000613  3C1D               	dw	15389
    37  000615  C482               	dw	50306
    38  000617  3AAE               	dw	15022
    39  000619  78A8               	dw	30888
    40  00061B  3921               	dw	14625
    41  00061D  93EF               	dw	37871
    42  00061F  3780               	dw	14208
    43  000621  92A0               	dw	37536
    44  000623  35A7               	dw	13735
    45  000625  5646               	dw	22086
    46  000627  3415               	dw	13333
    47  000629                     __end_ofexp@coeff:
    48                           	opt stack 0
    49  000629  0000               	dw	0
    50  00062B  0000               	dw	0
    51  00062D  FFC4               	dw	65476
    52  00062F  3F7F               	dw	16255
    53  000631  EF80               	dw	61312
    54  000633  BEFF               	dw	48895
    55  000635  E190               	dw	57744
    56  000637  3EA9               	dw	16041
    57  000639  82EC               	dw	33516
    58  00063B  BE76               	dw	48758
    59  00063D  AD82               	dw	44418
    60  00063F  3E2B               	dw	15915
    61  000641  3C0E               	dw	15374
    62  000643  BDC3               	dw	48579
    63  000645  D187               	dw	53639
    64  000647  3D13               	dw	15635
    65  000649  7841               	dw	30785
    66  00064B  BBD3               	dw	48083
    67  00064D                     __end_oflog@coeff:
    68                           	opt stack 0
    69  00064D  3C06               	dw	15366
    70  00064F  4204               	dw	16900
    71  000651  9F7D               	dw	40829
    72  000653  426A               	dw	17002
    73  000655  905C               	dw	36956
    74  000657  4201               	dw	16897
    75  000659  4D60               	dw	19808
    76  00065B  40BB               	dw	16571
    77  00065D  EC51               	dw	60497
    78  00065F  3E47               	dw	15943
    79  000661  8DDE               	dw	36318
    80  000663  BB1F               	dw	47903
    81  000665                     __end_ofatan@coeff_a:
    82                           	opt stack 0
    83  000665  3C06               	dw	15366
    84  000667  4204               	dw	16900
    85  000669  59C0               	dw	22976
    86  00066B  428B               	dw	17035
    87  00066D  0474               	dw	1140
    88  00066F  4244               	dw	16964
    89  000671  9BF9               	dw	39929
    90  000673  414F               	dw	16719
    91  000675  0000               	dw	0
    92  000677  3F80               	dw	16256
    93  000679                     __end_ofatan@coeff_b:
    94                           	opt stack 0
    95  0000                     _BAUDCON	set	4024
    96  0000                     _LATCbits	set	3979
    97  0000                     _OSCCONbits	set	4051
    98  0000                     _PIE1	set	3997
    99  0000                     _PIE1bits	set	3997
   100  0000                     _PIR1bits	set	3998
   101  0000                     _RCSTA	set	4011
   102  0000                     _RCSTAbits	set	4011
   103  0000                     _SPBRG	set	4015
   104  0000                     _SPBRGH	set	4016
   105  0000                     _SSPADD	set	4040
   106  0000                     _SSPCON1	set	4038
   107  0000                     _SSPCON2	set	4037
   108  0000                     _SSPCON2bits	set	4037
   109  0000                     _SSPSTAT	set	4039
   110  0000                     _TRISCbits	set	3988
   111  0000                     _TXSTA	set	4012
   112  0000                     _TXSTAbits	set	4012
   113                           
   114                           ; #config settings
   115  000679  00                 	db	0	; dummy byte at the end
   116  0000                     
   117                           	psect	cinit
   118  0007D6                     __pcinit:
   119                           	opt stack 0
   120  0007D6                     start_initialization:
   121                           	opt stack 0
   122  0007D6                     __initialization:
   123                           	opt stack 0
   124                           
   125                           ; Clear objects allocated to BANK0 (12 bytes)
   126  0007D6  EE00  F06E         	lfsr	0,__pbssBANK0
   127  0007DA  0E0C               	movlw	12
   128  0007DC                     clear_0:
   129  0007DC  6AEE               	clrf	postinc0,c
   130  0007DE  06E8               	decf	wreg,f,c
   131  0007E0  E1FD               	bnz	clear_0
   132                           
   133                           ; Clear objects allocated to COMRAM (54 bytes)
   134  0007E2  EE00  F001         	lfsr	0,__pbssCOMRAM
   135  0007E6  0E36               	movlw	54
   136  0007E8                     clear_1:
   137  0007E8  6AEE               	clrf	postinc0,c
   138  0007EA  06E8               	decf	wreg,f,c
   139  0007EC  E1FD               	bnz	clear_1
   140  0007EE                     end_of_initialization:
   141                           	opt stack 0
   142  0007EE                     __end_of__initialization:
   143                           	opt stack 0
   144  0007EE  0E00               	movlw	low (__Lsmallconst shr (0+16))
   145  0007F0  6EF8               	movwf	tblptru,c
   146  0007F2  0E06               	movlw	high __Lsmallconst
   147  0007F4  6EF7               	movwf	tblptrh,c
   148  0007F6  0100               	movlb	0
   149  0007F8  EFA9  F003         	goto	_main	;jump to C main() function
   150                           tblptru	equ	0xFF8
   151                           tblptrh	equ	0xFF7
   152                           postinc0	equ	0xFEE
   153                           wreg	equ	0xFE8
   154                           
   155                           	psect	bssCOMRAM
   156  000001                     __pbssCOMRAM:
   157                           	opt stack 0
   158  000001                     	ds	12
   159  00000D                     gyros@Gyros_LastAccel:
   160                           	opt stack 0
   161  00000D                     	ds	12
   162  000019                     gyros@Gyros_Vel:
   163                           	opt stack 0
   164  000019                     	ds	12
   165  000025                     	ds	8
   166  00002D                     gyros@Gyros_Angle:
   167                           	opt stack 0
   168  00002D                     	ds	8
   169  000035                     _errno:
   170                           	opt stack 0
   171  000035                     	ds	2
   172                           tblptru	equ	0xFF8
   173                           tblptrh	equ	0xFF7
   174                           postinc0	equ	0xFEE
   175                           wreg	equ	0xFE8
   176                           
   177                           	psect	bssBANK0
   178  00006E                     __pbssBANK0:
   179                           	opt stack 0
   180  00006E                     	ds	12
   181                           tblptru	equ	0xFF8
   182                           tblptrh	equ	0xFF7
   183                           postinc0	equ	0xFEE
   184                           wreg	equ	0xFE8
   185                           
   186                           	psect	cstackBANK0
   187  000060                     __pcstackBANK0:
   188                           	opt stack 0
   189  000060                     ??_System_HighPriorityInterrupt:
   190                           
   191                           ; 0 bytes @ 0x0
   192  000060                     	ds	14
   193                           tblptru	equ	0xFF8
   194                           tblptrh	equ	0xFF7
   195                           postinc0	equ	0xFEE
   196                           wreg	equ	0xFE8
   197                           
   198                           	psect	cstackCOMRAM
   199  000037                     __pcstackCOMRAM:
   200                           	opt stack 0
   201  000037                     ??_System_LowPriorityInterrupt:
   202                           
   203                           ; 0 bytes @ 0x0
   204  000037                     	ds	17
   205  000048                     baudUSART@baudconfig:
   206                           	opt stack 0
   207  000048                     OpenI2C@slew:
   208                           	opt stack 0
   209  000048                     OpenUSART@spbrg:
   210                           	opt stack 0
   211                           
   212                           ; 2 bytes @ 0x11
   213  000048                     	ds	1
   214  000049                     OpenI2C@sync_mode:
   215                           	opt stack 0
   216                           
   217                           ; 1 bytes @ 0x12
   218  000049                     	ds	1
   219  00004A                     OpenUSART@config:
   220                           	opt stack 0
   221                           
   222                           ; 1 bytes @ 0x13
   223  00004A                     	ds	1
   224  00004B                     ??_main:
   225                           
   226                           ; 0 bytes @ 0x14
   227  00004B                     	ds	1
   228  00004C                     main@i:
   229                           	opt stack 0
   230                           
   231                           ; 2 bytes @ 0x15
   232  00004C                     	ds	2
   233                           tblptru	equ	0xFF8
   234                           tblptrh	equ	0xFF7
   235                           postinc0	equ	0xFEE
   236                           wreg	equ	0xFE8
   237                           
   238 ;;
   239 ;;Main: autosize = 0, tempsize = 1, incstack = 0, save=0
   240 ;;
   241 ;; *************** function _main *****************
   242 ;; Defined at:
   243 ;;		line 67 in file "main.c"
   244 ;; Parameters:    Size  Location     Type
   245 ;;		None
   246 ;; Auto vars:     Size  Location     Type
   247 ;;  i               2   21[COMRAM] int 
   248 ;; Return value:  Size  Location     Type
   249 ;;		None               void
   250 ;; Registers used:
   251 ;;		wreg, status,2, status,0, cstack
   252 ;; Tracked objects:
   253 ;;		On entry : 0/0
   254 ;;		On exit  : 0/0
   255 ;;		Unchanged: 0/0
   256 ;; Data sizes:     COMRAM   BANK0   BANK1   BANK2   BANK3   BANK4   BANK5
   257 ;;      Params:         0       0       0       0       0       0       0
   258 ;;      Locals:         2       0       0       0       0       0       0
   259 ;;      Temps:          1       0       0       0       0       0       0
   260 ;;      Totals:         3       0       0       0       0       0       0
   261 ;;Total ram usage:        3 bytes
   262 ;; Hardware stack levels required when called:    4
   263 ;; This function calls:
   264 ;;		_System_Init
   265 ;; This function is called by:
   266 ;;		Startup code after reset
   267 ;; This function uses a non-reentrant model
   268 ;;
   269                           
   270                           	psect	text0
   271  000752                     __ptext0:
   272                           	opt stack 0
   273  000752                     _main:
   274                           	opt stack 27
   275                           
   276                           ;main.c: 68: System_Init();
   277                           
   278                           ;incstack = 0
   279  000752  ECCA  F003         	call	_System_Init	;wreg free
   280                           
   281                           ;main.c: 70: LATCbits.LATC0 = 0;
   282  000756  908B               	bcf	3979,0,c	;volatile
   283                           
   284                           ;main.c: 73: LATCbits.LATC0 = 1;
   285  000758  808B               	bsf	3979,0,c	;volatile
   286  00075A  D000               	goto	l1295
   287  00075C                     l1295:
   288                           
   289                           ;main.c: 76: LATCbits.LATC0 = ~LATCbits.LATC0;
   290  00075C  708B               	btg	3979,0,c	;volatile
   291                           
   292                           ;main.c: 79: for (int i = 0; i < 100; i++) _delay((unsigned long)((10)*(16000000/4000.0)
      +                          ));
   293  00075E  0E00               	movlw	0
   294  000760  6E4D               	movwf	main@i+1,c
   295  000762  0E00               	movlw	0
   296  000764  6E4C               	movwf	main@i,c
   297  000766                     l1299:
   298  000766  BE4D               	btfsc	main@i+1,7,c
   299  000768  D008               	goto	l1303
   300  00076A  504D               	movf	main@i+1,w,c
   301  00076C  E1F7               	bnz	l1295
   302  00076E  0E64               	movlw	100
   303  000770  5C4C               	subwf	main@i,w,c
   304  000772  B0D8               	btfsc	status,0,c
   305  000774  D7F3               	goto	l1295
   306  000776  D001               	goto	l1303
   307  000778  D7F1               	goto	l1295
   308  00077A                     l1303:
   309  00077A  0E34               	movlw	52
   310  00077C  6E4B               	movwf	??_main& (0+255),c
   311  00077E  0EF2               	movlw	242
   312  000780                     u387:
   313  000780  2EE8               	decfsz	wreg,f,c
   314  000782  D7FE               	goto	u387
   315  000784  2E4B               	decfsz	??_main& (0+255),f,c
   316  000786  D7FC               	goto	u387
   317  000788  4A4C               	infsnz	main@i,f,c
   318  00078A  2A4D               	incf	main@i+1,f,c
   319  00078C  D7EC               	goto	l1299
   320  00078E  D7E6               	goto	l1295
   321  000790  EF51  F000         	goto	start
   322  000794                     __end_of_main:
   323                           	opt stack 0
   324                           tblptru	equ	0xFF8
   325                           tblptrh	equ	0xFF7
   326                           postinc0	equ	0xFEE
   327                           wreg	equ	0xFE8
   328                           status	equ	0xFD8
   329                           
   330 ;; *************** function _System_Init *****************
   331 ;; Defined at:
   332 ;;		line 13 in file "system.c"
   333 ;; Parameters:    Size  Location     Type
   334 ;;		None
   335 ;; Auto vars:     Size  Location     Type
   336 ;;		None
   337 ;; Return value:  Size  Location     Type
   338 ;;		None               void
   339 ;; Registers used:
   340 ;;		wreg, status,2, status,0, cstack
   341 ;; Tracked objects:
   342 ;;		On entry : 0/0
   343 ;;		On exit  : 0/0
   344 ;;		Unchanged: 0/0
   345 ;; Data sizes:     COMRAM   BANK0   BANK1   BANK2   BANK3   BANK4   BANK5
   346 ;;      Params:         0       0       0       0       0       0       0
   347 ;;      Locals:         0       0       0       0       0       0       0
   348 ;;      Temps:          0       0       0       0       0       0       0
   349 ;;      Totals:         0       0       0       0       0       0       0
   350 ;;Total ram usage:        0 bytes
   351 ;; Hardware stack levels used:    1
   352 ;; Hardware stack levels required when called:    3
   353 ;; This function calls:
   354 ;;		_CloseI2C
   355 ;;		_OpenI2C
   356 ;;		_OpenUSART
   357 ;;		_baudUSART
   358 ;; This function is called by:
   359 ;;		_main
   360 ;; This function uses a non-reentrant model
   361 ;;
   362                           
   363                           	psect	text1
   364  000794                     __ptext1:
   365                           	opt stack 0
   366  000794                     _System_Init:
   367                           	opt stack 27
   368                           
   369                           ;system.c: 15: OSCCONbits.SCS = 0b11;
   370                           
   371                           ;incstack = 0
   372  000794  0E03               	movlw	3
   373  000796  12D3               	iorwf	4051,f,c	;volatile
   374                           
   375                           ;system.c: 16: OSCCONbits.IRCF = 0b111;
   376  000798  88D3               	bsf	4051,4,c	;volatile
   377  00079A  8AD3               	bsf	4051,5,c	;volatile
   378  00079C  8CD3               	bsf	4051,6,c	;volatile
   379                           
   380                           ;system.c: 17: TRISCbits.RC0 = 0;
   381  00079E  9094               	bcf	3988,0,c	;volatile
   382                           
   383                           ;system.c: 18: LATCbits.LATC0 = 0;
   384  0007A0  908B               	bcf	3979,0,c	;volatile
   385                           
   386                           ;system.c: 21: RCSTA&=0b01001111,TXSTAbits.TXEN=0,PIE1&=0b11001111;
   387  0007A2  0E4F               	movlw	79
   388  0007A4  16AB               	andwf	4011,f,c	;volatile
   389  0007A6  9AAC               	bcf	4012,5,c	;volatile
   390  0007A8  0ECF               	movlw	207
   391  0007AA  169D               	andwf	3997,f,c	;volatile
   392                           
   393                           ;system.c: 22: OpenUSART(0b00000000 | 0b00000000 | 0b00000000
   394                           ;system.c: 23: | 0b00000000 | 0b00001000 | 0b00000000, 51);
   395  0007AC  0E00               	movlw	0
   396  0007AE  6E49               	movwf	OpenUSART@spbrg+1,c
   397  0007B0  0E33               	movlw	51
   398  0007B2  6E48               	movwf	OpenUSART@spbrg,c
   399  0007B4  0E08               	movlw	8
   400  0007B6  EC3D  F003         	call	_OpenUSART
   401                           
   402                           ;system.c: 24: baudUSART (0b00000000 | 0b00000000);
   403  0007BA  0E00               	movlw	0
   404  0007BC  EC0D  F004         	call	_baudUSART
   405                           
   406                           ;system.c: 27: CloseI2C();
   407  0007C0  EC11  F004         	call	_CloseI2C	;wreg free
   408                           
   409                           ;system.c: 28: OpenI2C(0b00001000, 0b10000000);
   410  0007C4  0E80               	movlw	128
   411  0007C6  6E48               	movwf	OpenI2C@slew,c
   412  0007C8  0E08               	movlw	8
   413  0007CA  ECFE  F003         	call	_OpenI2C
   414                           
   415                           ;system.c: 31: SSPADD = 39;
   416  0007CE  0E27               	movlw	39
   417  0007D0  6EC8               	movwf	4040,c	;volatile
   418                           
   419                           ;system.c: 34: LATCbits.LATC0 = 1;
   420  0007D2  808B               	bsf	3979,0,c	;volatile
   421  0007D4  0012               	return		;funcret
   422  0007D6                     __end_of_System_Init:
   423                           	opt stack 0
   424                           tblptru	equ	0xFF8
   425                           tblptrh	equ	0xFF7
   426                           postinc0	equ	0xFEE
   427                           wreg	equ	0xFE8
   428                           status	equ	0xFD8
   429                           
   430 ;; *************** function _baudUSART *****************
   431 ;; Defined at:
   432 ;;		line 15 in file "C:\Program Files (x86)\Microchip\xc8\v1.34\sources\pic18\plib\USART\ubaud.c"
   433 ;; Parameters:    Size  Location     Type
   434 ;;  baudconfig      1    wreg     unsigned char 
   435 ;; Auto vars:     Size  Location     Type
   436 ;;  baudconfig      1   17[COMRAM] unsigned char 
   437 ;; Return value:  Size  Location     Type
   438 ;;		None               void
   439 ;; Registers used:
   440 ;;		wreg
   441 ;; Tracked objects:
   442 ;;		On entry : 0/0
   443 ;;		On exit  : 0/0
   444 ;;		Unchanged: 0/0
   445 ;; Data sizes:     COMRAM   BANK0   BANK1   BANK2   BANK3   BANK4   BANK5
   446 ;;      Params:         0       0       0       0       0       0       0
   447 ;;      Locals:         1       0       0       0       0       0       0
   448 ;;      Temps:          0       0       0       0       0       0       0
   449 ;;      Totals:         1       0       0       0       0       0       0
   450 ;;Total ram usage:        1 bytes
   451 ;; Hardware stack levels used:    1
   452 ;; Hardware stack levels required when called:    2
   453 ;; This function calls:
   454 ;;		Nothing
   455 ;; This function is called by:
   456 ;;		_System_Init
   457 ;; This function uses a non-reentrant model
   458 ;;
   459                           
   460                           	psect	text2
   461  00081A                     __ptext2:
   462                           	opt stack 0
   463  00081A                     _baudUSART:
   464                           	opt stack 27
   465                           
   466                           ;incstack = 0
   467                           ;baudUSART@baudconfig stored from wreg
   468  00081A  6E48               	movwf	baudUSART@baudconfig,c
   469  00081C  C048  FFB8         	movff	baudUSART@baudconfig,4024	;volatile
   470  000820  0012               	return		;funcret
   471  000822                     __end_of_baudUSART:
   472                           	opt stack 0
   473                           tblptru	equ	0xFF8
   474                           tblptrh	equ	0xFF7
   475                           postinc0	equ	0xFEE
   476                           wreg	equ	0xFE8
   477                           status	equ	0xFD8
   478                           
   479 ;; *************** function _OpenUSART *****************
   480 ;; Defined at:
   481 ;;		line 73 in file "C:\Program Files (x86)\Microchip\xc8\v1.34\sources\pic18\plib\USART\uopen.c"
   482 ;; Parameters:    Size  Location     Type
   483 ;;  config          1    wreg     unsigned char 
   484 ;;  spbrg           2   17[COMRAM] unsigned int 
   485 ;; Auto vars:     Size  Location     Type
   486 ;;  config          1   19[COMRAM] unsigned char 
   487 ;; Return value:  Size  Location     Type
   488 ;;		None               void
   489 ;; Registers used:
   490 ;;		wreg, status,2
   491 ;; Tracked objects:
   492 ;;		On entry : 0/0
   493 ;;		On exit  : 0/0
   494 ;;		Unchanged: 0/0
   495 ;; Data sizes:     COMRAM   BANK0   BANK1   BANK2   BANK3   BANK4   BANK5
   496 ;;      Params:         2       0       0       0       0       0       0
   497 ;;      Locals:         1       0       0       0       0       0       0
   498 ;;      Temps:          0       0       0       0       0       0       0
   499 ;;      Totals:         3       0       0       0       0       0       0
   500 ;;Total ram usage:        3 bytes
   501 ;; Hardware stack levels used:    1
   502 ;; Hardware stack levels required when called:    2
   503 ;; This function calls:
   504 ;;		Nothing
   505 ;; This function is called by:
   506 ;;		_System_Init
   507 ;; This function uses a non-reentrant model
   508 ;;
   509                           
   510                           	psect	text3
   511  00067A                     __ptext3:
   512                           	opt stack 0
   513  00067A                     _OpenUSART:
   514                           	opt stack 27
   515                           
   516                           ;incstack = 0
   517                           ;OpenUSART@config stored from wreg
   518  00067A  6E4A               	movwf	OpenUSART@config,c
   519  00067C  0E00               	movlw	0
   520  00067E  6EAC               	movwf	4012,c	;volatile
   521  000680  0E00               	movlw	0
   522  000682  6EAB               	movwf	4011,c	;volatile
   523  000684  A04A               	btfss	OpenUSART@config,0,c
   524  000686  D002               	goto	l1209
   525  000688  88AC               	bsf	4012,4,c	;volatile
   526  00068A  D000               	goto	l1209
   527  00068C                     l1209:
   528  00068C  A24A               	btfss	OpenUSART@config,1,c
   529  00068E  D003               	goto	l1213
   530  000690  8CAC               	bsf	4012,6,c	;volatile
   531  000692  8CAB               	bsf	4011,6,c	;volatile
   532  000694  D000               	goto	l1213
   533  000696                     l1213:
   534  000696  A44A               	btfss	OpenUSART@config,2,c
   535  000698  D002               	goto	l1217
   536  00069A  8EAC               	bsf	4012,7,c	;volatile
   537  00069C  D000               	goto	l1217
   538  00069E                     l1217:
   539  00069E  A64A               	btfss	OpenUSART@config,3,c
   540  0006A0  D002               	goto	l169
   541  0006A2  88AB               	bsf	4011,4,c	;volatile
   542  0006A4  D002               	goto	l1221
   543  0006A6                     l169:
   544  0006A6  8AAB               	bsf	4011,5,c	;volatile
   545  0006A8  D000               	goto	l1221
   546  0006AA                     l1221:
   547  0006AA  B84A               	btfsc	OpenUSART@config,4,c
   548  0006AC  84AC               	bsf	4012,2,c	;volatile
   549  0006AE  989E               	bcf	3998,4,c	;volatile
   550  0006B0  AA4A               	btfss	OpenUSART@config,5,c
   551  0006B2  D002               	goto	l1229
   552  0006B4  86AB               	bsf	4011,3,c	;volatile
   553  0006B6  D000               	goto	l1229
   554  0006B8                     l1229:
   555  0006B8  AC4A               	btfss	OpenUSART@config,6,c
   556  0006BA  D002               	goto	l173
   557  0006BC  8A9D               	bsf	3997,5,c	;volatile
   558  0006BE  D001               	goto	l174
   559  0006C0                     l173:
   560  0006C0  9A9D               	bcf	3997,5,c	;volatile
   561  0006C2                     l174:
   562  0006C2  9A9E               	bcf	3998,5,c	;volatile
   563  0006C4  AE4A               	btfss	OpenUSART@config,7,c
   564  0006C6  D002               	goto	l175
   565  0006C8  889D               	bsf	3997,4,c	;volatile
   566  0006CA  D001               	goto	l176
   567  0006CC                     l175:
   568  0006CC  989D               	bcf	3997,4,c	;volatile
   569  0006CE                     l176:
   570  0006CE  C048  FFAF         	movff	OpenUSART@spbrg,4015	;volatile
   571  0006D2  5049               	movf	OpenUSART@spbrg+1,w,c
   572  0006D4  6EB0               	movwf	4016,c	;volatile
   573  0006D6  8AAC               	bsf	4012,5,c	;volatile
   574  0006D8  8EAB               	bsf	4011,7,c	;volatile
   575  0006DA  9C94               	bcf	3988,6,c	;volatile
   576  0006DC  8E94               	bsf	3988,7,c	;volatile
   577  0006DE  A8AC               	btfss	4012,4,c	;volatile
   578  0006E0  0012               	return	
   579  0006E2  BEAC               	btfsc	4012,7,c	;volatile
   580  0006E4  0012               	return	
   581  0006E6  8C94               	bsf	3988,6,c	;volatile
   582  0006E8  0012               	return	
   583  0006EA  0012               	return		;funcret
   584  0006EC                     __end_of_OpenUSART:
   585                           	opt stack 0
   586                           tblptru	equ	0xFF8
   587                           tblptrh	equ	0xFF7
   588                           postinc0	equ	0xFEE
   589                           wreg	equ	0xFE8
   590                           status	equ	0xFD8
   591                           
   592 ;; *************** function _OpenI2C *****************
   593 ;; Defined at:
   594 ;;		line 14 in file "C:\Program Files (x86)\Microchip\xc8\v1.34\sources\pic18\plib\i2c\i2c_open.c"
   595 ;; Parameters:    Size  Location     Type
   596 ;;  sync_mode       1    wreg     unsigned char 
   597 ;;  slew            1   17[COMRAM] unsigned char 
   598 ;; Auto vars:     Size  Location     Type
   599 ;;  sync_mode       1   18[COMRAM] unsigned char 
   600 ;; Return value:  Size  Location     Type
   601 ;;		None               void
   602 ;; Registers used:
   603 ;;		wreg, status,2, status,0
   604 ;; Tracked objects:
   605 ;;		On entry : 0/0
   606 ;;		On exit  : 0/0
   607 ;;		Unchanged: 0/0
   608 ;; Data sizes:     COMRAM   BANK0   BANK1   BANK2   BANK3   BANK4   BANK5
   609 ;;      Params:         1       0       0       0       0       0       0
   610 ;;      Locals:         1       0       0       0       0       0       0
   611 ;;      Temps:          0       0       0       0       0       0       0
   612 ;;      Totals:         2       0       0       0       0       0       0
   613 ;;Total ram usage:        2 bytes
   614 ;; Hardware stack levels used:    1
   615 ;; Hardware stack levels required when called:    2
   616 ;; This function calls:
   617 ;;		Nothing
   618 ;; This function is called by:
   619 ;;		_System_Init
   620 ;; This function uses a non-reentrant model
   621 ;;
   622                           
   623                           	psect	text4
   624  0007FC                     __ptext4:
   625                           	opt stack 0
   626  0007FC                     _OpenI2C:
   627                           	opt stack 27
   628                           
   629                           ;incstack = 0
   630                           ;OpenI2C@sync_mode stored from wreg
   631  0007FC  6E49               	movwf	OpenI2C@sync_mode,c
   632  0007FE  0E3F               	movlw	63
   633  000800  16C7               	andwf	4039,f,c	;volatile
   634  000802  0E00               	movlw	0
   635  000804  6EC6               	movwf	4038,c	;volatile
   636  000806  0E00               	movlw	0
   637  000808  6EC5               	movwf	4037,c	;volatile
   638  00080A  5049               	movf	OpenI2C@sync_mode,w,c
   639  00080C  12C6               	iorwf	4038,f,c	;volatile
   640  00080E  5048               	movf	OpenI2C@slew,w,c
   641  000810  12C7               	iorwf	4039,f,c	;volatile
   642  000812  8694               	bsf	3988,3,c	;volatile
   643  000814  8894               	bsf	3988,4,c	;volatile
   644  000816  8AC6               	bsf	4038,5,c	;volatile
   645  000818  0012               	return		;funcret
   646  00081A                     __end_of_OpenI2C:
   647                           	opt stack 0
   648                           tblptru	equ	0xFF8
   649                           tblptrh	equ	0xFF7
   650                           postinc0	equ	0xFEE
   651                           wreg	equ	0xFE8
   652                           status	equ	0xFD8
   653                           
   654 ;; *************** function _CloseI2C *****************
   655 ;; Defined at:
   656 ;;		line 19 in file "C:\Program Files (x86)\Microchip\xc8\v1.34\sources\pic18\plib\i2c\i2c_clos.c"
   657 ;; Parameters:    Size  Location     Type
   658 ;;		None
   659 ;; Auto vars:     Size  Location     Type
   660 ;;		None
   661 ;; Return value:  Size  Location     Type
   662 ;;		None               void
   663 ;; Registers used:
   664 ;;		status,2, status,0
   665 ;; Tracked objects:
   666 ;;		On entry : 0/0
   667 ;;		On exit  : 0/0
   668 ;;		Unchanged: 0/0
   669 ;; Data sizes:     COMRAM   BANK0   BANK1   BANK2   BANK3   BANK4   BANK5
   670 ;;      Params:         0       0       0       0       0       0       0
   671 ;;      Locals:         0       0       0       0       0       0       0
   672 ;;      Temps:          0       0       0       0       0       0       0
   673 ;;      Totals:         0       0       0       0       0       0       0
   674 ;;Total ram usage:        0 bytes
   675 ;; Hardware stack levels used:    1
   676 ;; Hardware stack levels required when called:    2
   677 ;; This function calls:
   678 ;;		Nothing
   679 ;; This function is called by:
   680 ;;		_System_Init
   681 ;; This function uses a non-reentrant model
   682 ;;
   683                           
   684                           	psect	text5
   685  000822                     __ptext5:
   686                           	opt stack 0
   687  000822                     _CloseI2C:
   688                           	opt stack 27
   689                           
   690                           ;incstack = 0
   691  000822  9AC6               	bcf	4038,5,c	;volatile
   692  000824  0012               	return		;funcret
   693  000826                     __end_of_CloseI2C:
   694                           	opt stack 0
   695                           tblptru	equ	0xFF8
   696                           tblptrh	equ	0xFF7
   697                           postinc0	equ	0xFEE
   698                           wreg	equ	0xFE8
   699                           status	equ	0xFD8
   700                           
   701 ;; *************** function _System_LowPriorityInterrupt *****************
   702 ;; Defined at:
   703 ;;		line 8 in file "system.c"
   704 ;; Parameters:    Size  Location     Type
   705 ;;		None
   706 ;; Auto vars:     Size  Location     Type
   707 ;;		None
   708 ;; Return value:  Size  Location     Type
   709 ;;		None               void
   710 ;; Registers used:
   711 ;;		None
   712 ;; Tracked objects:
   713 ;;		On entry : 0/0
   714 ;;		On exit  : 0/0
   715 ;;		Unchanged: 0/0
   716 ;; Data sizes:     COMRAM   BANK0   BANK1   BANK2   BANK3   BANK4   BANK5
   717 ;;      Params:         0       0       0       0       0       0       0
   718 ;;      Locals:         0       0       0       0       0       0       0
   719 ;;      Temps:         17       0       0       0       0       0       0
   720 ;;      Totals:        17       0       0       0       0       0       0
   721 ;;Total ram usage:       17 bytes
   722 ;; Hardware stack levels used:    1
   723 ;; Hardware stack levels required when called:    1
   724 ;; This function calls:
   725 ;;		Nothing
   726 ;; This function is called by:
   727 ;;		Interrupt level 1
   728 ;; This function uses a non-reentrant model
   729 ;;
   730                           
   731                           	psect	intcodelo
   732  000018                     __pintcodelo:
   733                           	opt stack 0
   734  000018                     _System_LowPriorityInterrupt:
   735                           	opt stack 27
   736                           
   737                           ;incstack = 0
   738  000018  CFD8 F037          	movff	status,??_System_LowPriorityInterrupt
   739  00001C  CFE8 F038          	movff	wreg,??_System_LowPriorityInterrupt+1
   740  000020  CFE0 F039          	movff	bsr,??_System_LowPriorityInterrupt+2
   741  000024  CFFA F03A          	movff	pclath,??_System_LowPriorityInterrupt+3
   742  000028  CFFB F03B          	movff	pclatu,??_System_LowPriorityInterrupt+4
   743  00002C  CFE9 F03C          	movff	fsr0l,??_System_LowPriorityInterrupt+5
   744  000030  CFEA F03D          	movff	fsr0h,??_System_LowPriorityInterrupt+6
   745  000034  CFE1 F03E          	movff	fsr1l,??_System_LowPriorityInterrupt+7
   746  000038  CFE2 F03F          	movff	fsr1h,??_System_LowPriorityInterrupt+8
   747  00003C  CFD9 F040          	movff	fsr2l,??_System_LowPriorityInterrupt+9
   748  000040  CFDA F041          	movff	fsr2h,??_System_LowPriorityInterrupt+10
   749  000044  CFF3 F042          	movff	prodl,??_System_LowPriorityInterrupt+11
   750  000048  CFF4 F043          	movff	prodh,??_System_LowPriorityInterrupt+12
   751  00004C  CFF6 F044          	movff	tblptrl,??_System_LowPriorityInterrupt+13
   752  000050  CFF7 F045          	movff	tblptrh,??_System_LowPriorityInterrupt+14
   753  000054  CFF8 F046          	movff	tblptru,??_System_LowPriorityInterrupt+15
   754  000058  CFF5 F047          	movff	tablat,??_System_LowPriorityInterrupt+16
   755  00005C  C047  FFF5         	movff	??_System_LowPriorityInterrupt+16,tablat
   756  000060  C046  FFF8         	movff	??_System_LowPriorityInterrupt+15,tblptru
   757  000064  C045  FFF7         	movff	??_System_LowPriorityInterrupt+14,tblptrh
   758  000068  C044  FFF6         	movff	??_System_LowPriorityInterrupt+13,tblptrl
   759  00006C  C043  FFF4         	movff	??_System_LowPriorityInterrupt+12,prodh
   760  000070  C042  FFF3         	movff	??_System_LowPriorityInterrupt+11,prodl
   761  000074  C041  FFDA         	movff	??_System_LowPriorityInterrupt+10,fsr2h
   762  000078  C040  FFD9         	movff	??_System_LowPriorityInterrupt+9,fsr2l
   763  00007C  C03F  FFE2         	movff	??_System_LowPriorityInterrupt+8,fsr1h
   764  000080  C03E  FFE1         	movff	??_System_LowPriorityInterrupt+7,fsr1l
   765  000084  C03D  FFEA         	movff	??_System_LowPriorityInterrupt+6,fsr0h
   766  000088  C03C  FFE9         	movff	??_System_LowPriorityInterrupt+5,fsr0l
   767  00008C  C03B  FFFB         	movff	??_System_LowPriorityInterrupt+4,pclatu
   768  000090  C03A  FFFA         	movff	??_System_LowPriorityInterrupt+3,pclath
   769  000094  C039  FFE0         	movff	??_System_LowPriorityInterrupt+2,bsr
   770  000098  C038  FFE8         	movff	??_System_LowPriorityInterrupt+1,wreg
   771  00009C  C037  FFD8         	movff	??_System_LowPriorityInterrupt,status
   772  0000A0  0010               	retfie	
   773  0000A2                     __end_of_System_LowPriorityInterrupt:
   774                           	opt stack 0
   775                           pclatu	equ	0xFFB
   776                           pclath	equ	0xFFA
   777                           tblptru	equ	0xFF8
   778                           tblptrh	equ	0xFF7
   779                           tblptrl	equ	0xFF6
   780                           tablat	equ	0xFF5
   781                           prodh	equ	0xFF4
   782                           prodl	equ	0xFF3
   783                           postinc0	equ	0xFEE
   784                           fsr0h	equ	0xFEA
   785                           fsr0l	equ	0xFE9
   786                           wreg	equ	0xFE8
   787                           fsr1h	equ	0xFE2
   788                           fsr1l	equ	0xFE1
   789                           bsr	equ	0xFE0
   790                           fsr2h	equ	0xFDA
   791                           fsr2l	equ	0xFD9
   792                           status	equ	0xFD8
   793                           
   794 ;; *************** function _System_HighPriorityInterrupt *****************
   795 ;; Defined at:
   796 ;;		line 3 in file "system.c"
   797 ;; Parameters:    Size  Location     Type
   798 ;;		None
   799 ;; Auto vars:     Size  Location     Type
   800 ;;		None
   801 ;; Return value:  Size  Location     Type
   802 ;;		None               void
   803 ;; Registers used:
   804 ;;		None
   805 ;; Tracked objects:
   806 ;;		On entry : 0/0
   807 ;;		On exit  : 0/0
   808 ;;		Unchanged: 0/0
   809 ;; Data sizes:     COMRAM   BANK0   BANK1   BANK2   BANK3   BANK4   BANK5
   810 ;;      Params:         0       0       0       0       0       0       0
   811 ;;      Locals:         0       0       0       0       0       0       0
   812 ;;      Temps:          0      14       0       0       0       0       0
   813 ;;      Totals:         0      14       0       0       0       0       0
   814 ;;Total ram usage:       14 bytes
   815 ;; Hardware stack levels used:    1
   816 ;; This function calls:
   817 ;;		Nothing
   818 ;; This function is called by:
   819 ;;		Interrupt level 2
   820 ;; This function uses a non-reentrant model
   821 ;;
   822                           
   823                           	psect	intcode
   824  000008                     __pintcode:
   825                           	opt stack 0
   826  000008                     _System_HighPriorityInterrupt:
   827                           	opt stack 27
   828                           
   829                           ;incstack = 0
   830  000008  CFFA F060          	movff	pclath,??_System_HighPriorityInterrupt
   831  00000C  CFFB F061          	movff	pclatu,??_System_HighPriorityInterrupt+1
   832  000010  CFE9 F062          	movff	fsr0l,??_System_HighPriorityInterrupt+2
   833  000014  EF76  F003         	goto	int_func
   834                           pclatu	equ	0xFFB
   835                           pclath	equ	0xFFA
   836                           tblptru	equ	0xFF8
   837                           tblptrh	equ	0xFF7
   838                           tblptrl	equ	0xFF6
   839                           tablat	equ	0xFF5
   840                           prodh	equ	0xFF4
   841                           prodl	equ	0xFF3
   842                           postinc0	equ	0xFEE
   843                           fsr0h	equ	0xFEA
   844                           fsr0l	equ	0xFE9
   845                           wreg	equ	0xFE8
   846                           fsr1h	equ	0xFE2
   847                           fsr1l	equ	0xFE1
   848                           bsr	equ	0xFE0
   849                           fsr2h	equ	0xFDA
   850                           fsr2l	equ	0xFD9
   851                           status	equ	0xFD8
   852                           
   853                           	psect	intcode_body
   854  0006EC                     __pintcode_body:
   855                           	opt stack 27
   856  0006EC                     int_func:
   857                           	opt stack 27
   858  0006EC  CFEA F063          	movff	fsr0h,??_System_HighPriorityInterrupt+3
   859  0006F0  CFE1 F064          	movff	fsr1l,??_System_HighPriorityInterrupt+4
   860  0006F4  CFE2 F065          	movff	fsr1h,??_System_HighPriorityInterrupt+5
   861  0006F8  CFD9 F066          	movff	fsr2l,??_System_HighPriorityInterrupt+6
   862  0006FC  CFDA F067          	movff	fsr2h,??_System_HighPriorityInterrupt+7
   863  000700  CFF3 F068          	movff	prodl,??_System_HighPriorityInterrupt+8
   864  000704  CFF4 F069          	movff	prodh,??_System_HighPriorityInterrupt+9
   865  000708  CFF6 F06A          	movff	tblptrl,??_System_HighPriorityInterrupt+10
   866  00070C  CFF7 F06B          	movff	tblptrh,??_System_HighPriorityInterrupt+11
   867  000710  CFF8 F06C          	movff	tblptru,??_System_HighPriorityInterrupt+12
   868  000714  CFF5 F06D          	movff	tablat,??_System_HighPriorityInterrupt+13
   869  000718  C06D  FFF5         	movff	??_System_HighPriorityInterrupt+13,tablat
   870  00071C  C06C  FFF8         	movff	??_System_HighPriorityInterrupt+12,tblptru
   871  000720  C06B  FFF7         	movff	??_System_HighPriorityInterrupt+11,tblptrh
   872  000724  C06A  FFF6         	movff	??_System_HighPriorityInterrupt+10,tblptrl
   873  000728  C069  FFF4         	movff	??_System_HighPriorityInterrupt+9,prodh
   874  00072C  C068  FFF3         	movff	??_System_HighPriorityInterrupt+8,prodl
   875  000730  C067  FFDA         	movff	??_System_HighPriorityInterrupt+7,fsr2h
   876  000734  C066  FFD9         	movff	??_System_HighPriorityInterrupt+6,fsr2l
   877  000738  C065  FFE2         	movff	??_System_HighPriorityInterrupt+5,fsr1h
   878  00073C  C064  FFE1         	movff	??_System_HighPriorityInterrupt+4,fsr1l
   879  000740  C063  FFEA         	movff	??_System_HighPriorityInterrupt+3,fsr0h
   880  000744  C062  FFE9         	movff	??_System_HighPriorityInterrupt+2,fsr0l
   881  000748  C061  FFFB         	movff	??_System_HighPriorityInterrupt+1,pclatu
   882  00074C  C060  FFFA         	movff	??_System_HighPriorityInterrupt,pclath
   883  000750  0011               	retfie		f
   884  000752                     __end_of_System_HighPriorityInterrupt:
   885                           	opt stack 0
   886                           pclatu	equ	0xFFB
   887                           pclath	equ	0xFFA
   888                           tblptru	equ	0xFF8
   889                           tblptrh	equ	0xFF7
   890                           tblptrl	equ	0xFF6
   891                           tablat	equ	0xFF5
   892                           prodh	equ	0xFF4
   893                           prodl	equ	0xFF3
   894                           postinc0	equ	0xFEE
   895                           fsr0h	equ	0xFEA
   896                           fsr0l	equ	0xFE9
   897                           wreg	equ	0xFE8
   898                           fsr1h	equ	0xFE2
   899                           fsr1l	equ	0xFE1
   900                           bsr	equ	0xFE0
   901                           fsr2h	equ	0xFDA
   902                           fsr2l	equ	0xFD9
   903                           status	equ	0xFD8
   904                           pclatu	equ	0xFFB
   905                           pclath	equ	0xFFA
   906                           tblptru	equ	0xFF8
   907                           tblptrh	equ	0xFF7
   908                           tblptrl	equ	0xFF6
   909                           tablat	equ	0xFF5
   910                           prodh	equ	0xFF4
   911                           prodl	equ	0xFF3
   912                           postinc0	equ	0xFEE
   913                           fsr0h	equ	0xFEA
   914                           fsr0l	equ	0xFE9
   915                           wreg	equ	0xFE8
   916                           fsr1h	equ	0xFE2
   917                           fsr1l	equ	0xFE1
   918                           bsr	equ	0xFE0
   919                           fsr2h	equ	0xFDA
   920                           fsr2l	equ	0xFD9
   921                           status	equ	0xFD8
   922                           
   923                           	psect	param0
   924  0000                     pclatu	equ	0xFFB
   925                           pclath	equ	0xFFA
   926                           tblptru	equ	0xFF8
   927                           tblptrh	equ	0xFF7
   928                           tblptrl	equ	0xFF6
   929                           tablat	equ	0xFF5
   930                           prodh	equ	0xFF4
   931                           prodl	equ	0xFF3
   932                           postinc0	equ	0xFEE
   933                           fsr0h	equ	0xFEA
   934                           fsr0l	equ	0xFE9
   935                           wreg	equ	0xFE8
   936                           fsr1h	equ	0xFE2
   937                           fsr1l	equ	0xFE1
   938                           bsr	equ	0xFE0
   939                           fsr2h	equ	0xFDA
   940                           fsr2l	equ	0xFD9
   941                           status	equ	0xFD8


Data Sizes:
    Strings     0
    Constant    120
    Data        0
    BSS         66
    Persistent  0
    Stack       0

Auto Spaces:
    Space          Size  Autos    Used
    COMRAM           95     23      77
    BANK0           160     14      26
    BANK1           256      0       0
    BANK2           256      0       0
    BANK3           256      0       0
    BANK4           256      0       0
    BANK5           256      0       0

Pointer List with Targets:

    None.

Critical Paths under _main in COMRAM

    _System_Init->_OpenUSART

Critical Paths under _System_HighPriorityInterrupt in COMRAM

    None.

Critical Paths under _System_LowPriorityInterrupt in COMRAM

    None.

Critical Paths under _main in BANK0

    None.

Critical Paths under _System_HighPriorityInterrupt in BANK0

    None.

Critical Paths under _System_LowPriorityInterrupt in BANK0

    None.

Critical Paths under _main in BANK1

    None.

Critical Paths under _System_HighPriorityInterrupt in BANK1

    None.

Critical Paths under _System_LowPriorityInterrupt in BANK1

    None.

Critical Paths under _main in BANK2

    None.

Critical Paths under _System_HighPriorityInterrupt in BANK2

    None.

Critical Paths under _System_LowPriorityInterrupt in BANK2

    None.

Critical Paths under _main in BANK3

    None.

Critical Paths under _System_HighPriorityInterrupt in BANK3

    None.

Critical Paths under _System_LowPriorityInterrupt in BANK3

    None.

Critical Paths under _main in BANK4

    None.

Critical Paths under _System_HighPriorityInterrupt in BANK4

    None.

Critical Paths under _System_LowPriorityInterrupt in BANK4

    None.

Critical Paths under _main in BANK5

    None.

Critical Paths under _System_HighPriorityInterrupt in BANK5

    None.

Critical Paths under _System_LowPriorityInterrupt in BANK5

    None.

Call Graph Tables:

 ---------------------------------------------------------------------------------
 (Depth) Function   	        Calls       Base Space   Used Autos Params    Refs
 ---------------------------------------------------------------------------------
 (0) _main                                                 3     3      0     453
                                             20 COMRAM     3     3      0
                        _System_Init
 ---------------------------------------------------------------------------------
 (1) _System_Init                                          0     0      0     407
                           _CloseI2C
                            _OpenI2C
                          _OpenUSART
                          _baudUSART
 ---------------------------------------------------------------------------------
 (2) _baudUSART                                            1     1      0      15
                                             17 COMRAM     1     1      0
 ---------------------------------------------------------------------------------
 (2) _OpenUSART                                            3     1      2     284
                                             17 COMRAM     3     1      2
 ---------------------------------------------------------------------------------
 (2) _OpenI2C                                              2     1      1     108
                                             17 COMRAM     2     1      1
 ---------------------------------------------------------------------------------
 (2) _CloseI2C                                             0     0      0       0
 ---------------------------------------------------------------------------------
 Estimated maximum stack depth 2
 ---------------------------------------------------------------------------------
 (Depth) Function   	        Calls       Base Space   Used Autos Params    Refs
 ---------------------------------------------------------------------------------
 (3) _System_LowPriorityInterrupt                         17    17      0       0
                                              0 COMRAM    17    17      0
 ---------------------------------------------------------------------------------
 Estimated maximum stack depth 3
 ---------------------------------------------------------------------------------
 (Depth) Function   	        Calls       Base Space   Used Autos Params    Refs
 ---------------------------------------------------------------------------------
 (4) _System_HighPriorityInterrupt                        14    14      0       0
                                              0 BANK0     14    14      0
 ---------------------------------------------------------------------------------
 Estimated maximum stack depth 4
 ---------------------------------------------------------------------------------

 Call Graph Graphs:

 _main (ROOT)
   _System_Init
     _CloseI2C
     _OpenI2C
     _OpenUSART
     _baudUSART

 _System_LowPriorityInterrupt (ROOT)

 _System_HighPriorityInterrupt (ROOT)

 Address spaces:
Name               Size   Autos  Total    Cost      Usage
BIGRAM             5FF      0       0      17        0.0%
EEDATA             100      0       0       0        0.0%
BITBANK5           100      0       0      16        0.0%
BANK5              100      0       0      14        0.0%
BITBANK4           100      0       0      12        0.0%
BANK4              100      0       0      13        0.0%
BITBANK3           100      0       0      10        0.0%
BANK3              100      0       0      11        0.0%
BITBANK2           100      0       0       8        0.0%
BANK2              100      0       0       9        0.0%
BITBANK1           100      0       0       6        0.0%
BANK1              100      0       0       7        0.0%
BITBANK0            A0      0       0       4        0.0%
BANK0               A0      E      1A       5       16.3%
BITCOMRAM           5F      0       0       0        0.0%
COMRAM              5F     17      4D       1       81.1%
BITSFR               0      0       0      40        0.0%
SFR                  0      0       0      40        0.0%
STACK                0      0       0       2        0.0%
NULL                 0      0       0       0        0.0%
ABS                  0      0      67      15        0.0%
DATA                 0      0      67       3        0.0%
CODE                 0      0       0       0        0.0%


Microchip Technology PIC18 Macro Assembler V1.34 build -361300703 
Symbol Table                                                                                   Tue Dec 04 23:16:52 2018

                                   bsr 000FE0                           __CFG_CP0$OFF 000000  
                         __CFG_CP1$OFF 000000                           __CFG_CP2$OFF 000000  
                         __CFG_CP3$OFF 000000                                    l173 06C0  
                                  l174 06C2                                    l175 06CC  
                                  l176 06CE                                    l169 06A6  
                         __CFG_CPB$OFF 000000                           __CFG_CPD$OFF 000000  
                                  u387 0780                           __CFG_BORV$18 000000  
                                  wreg 000FE8                           __CFG_LVP$OFF 000000  
                       gyros@Gyros_Vel 0019                                   l1221 06AA  
                                 l1213 0696                                   l1303 077A  
                                 l1217 069E                                   l1209 068C  
                                 l1229 06B8                                   l1295 075C  
                                 l1299 0766                                   _PIE1 000F9D  
                                 _main 0752                                   fsr0h 000FEA  
                                 fsr1h 000FE2                                   fsr0l 000FE9  
                                 fsr2h 000FDA                                   fsr1l 000FE1  
                                 fsr2l 000FD9                    baudUSART@baudconfig 0048  
                      _Gyros_LastAccel 0001                                   pclat 000FFA  
                                 prodh 000FF4                                   prodl 000FF3  
                                 start 00A2                          __CFG_IESO$OFF 000000  
                        __CFG_MCLRE$ON 000000                   __size_of_System_Init 0042  
                         ___param_bank 000000                        __end_of_OpenI2C 081A  
                                ?_main 0037                                  _RCSTA 000FAB  
                                _SPBRG 000FAF                                  _TXSTA 000FAC  
                        __CFG_PWRT$OFF 000000                          __CFG_WRT0$OFF 000000  
                        __CFG_WRT1$OFF 000000                          __CFG_WRT2$OFF 000000  
                        __CFG_WRT3$OFF 000000                         __CFG_EBTR0$OFF 000000  
                       __CFG_FCMEN$OFF 000000                         __CFG_EBTR1$OFF 000000  
                       __CFG_EBTR2$OFF 000000                         __CFG_EBTR3$OFF 000000  
                        __CFG_WRTB$OFF 000000                          __CFG_WRTC$OFF 000000  
                        __CFG_WRTD$OFF 000000                         __CFG_EBTRB$OFF 000000  
                                _errno 0035                                  main@i 004C  
                                tablat 000FF5                                  status 000FD8  
                       __CFG_HFOFST$ON 000000                         __CFG_PBADEN$ON 000000  
                     __end_of_CloseI2C 0826                        __initialization 07D6  
                         __end_of_main 0794                       gyros@Gyros_Angle 002D  
                               ??_main 004B                          __activetblptr 000001  
                          OpenI2C@slew 0048                         __CFG_WDTEN$OFF 000000  
                               _SPBRGH 000FB0                                 _SSPADD 000FC8  
                            ??_OpenI2C 0049                         __CFG_XINST$OFF 000000  
                   __size_of_OpenUSART 0072                         __CFG_STVREN$ON 000000  
                               clear_0 07DC                                 clear_1 07E8  
                         __mediumconst 0000                                 tblptrh 000FF7  
                               tblptrl 000FF6                                 tblptru 000FF8  
       ??_System_HighPriorityInterrupt 0060                       __end_ofexp@coeff 0629  
                     __end_oflog@coeff 064D                             __accesstop 0060  
              __end_of__initialization 07EE                          ___rparam_used 000000  
                   __size_of_baudUSART 0008                         __pcstackCOMRAM 0037  
                            ?_CloseI2C 0037                      __end_of_OpenUSART 06EC  
                           __pbssBANK0 006E                                _BAUDCON 000FB8  
                    __end_of_baudUSART 0822                             ??_CloseI2C 0048  
                              _SSPCON1 000FC6                                _SSPCON2 000FC5  
                              _SSPSTAT 000FC7                            _Gyros_Angle 0025  
                        ??_System_Init 004B                                _OpenI2C 07FC  
                              __Hparam 0000                                __Lparam 0000  
                         __psmallconst 0600                                __pcinit 07D6  
                              __ramtop 0600                                __ptext0 0752  
                              __ptext1 0794                                __ptext2 081A  
                              __ptext3 067A                                __ptext4 07FC  
                              __ptext5 0822                         __pintcode_body 06EC  
                 end_of_initialization 07EE                                int_func 06EC  
                 gyros@Gyros_LastAccel 000D                              _RCSTAbits 000FAB  
         ?_System_LowPriorityInterrupt 0037                                postinc0 000FEE  
                  __end_of_System_Init 07D6                              _TRISCbits 000F94  
                            _TXSTAbits 000FAC                    start_initialization 07D6  
                    __size_of_CloseI2C 0004                              _OpenUSART 067A  
                          _System_Init 0794                              _Gyros_Vel 006E  
 __end_of_System_HighPriorityInterrupt 0752  __size_of_System_HighPriorityInterrupt 074A  
         _System_HighPriorityInterrupt 0008                       __CFG_LPT1OSC$OFF 000000  
                          __pbssCOMRAM 0001                          __pcstackBANK0 0060  
 __size_of_System_LowPriorityInterrupt 008A                              _baudUSART 081A  
                           ?_OpenUSART 0048                               ?_OpenI2C 0048  
                    __CFG_CCP2MX$PORTC 000000                              __pintcode 0008  
        ?_System_HighPriorityInterrupt 0037                            __pintcodelo 0018  
                          __smallconst 0600                             ?_baudUSART 0037  
                             _LATCbits 000F8B                               _PIE1bits 000F9D  
                             _PIR1bits 000F9E                       __CFG_WDTPS$32768 000000  
                  __end_ofatan@coeff_a 0665                    __end_ofatan@coeff_b 0679  
                             _CloseI2C 0822                       OpenI2C@sync_mode 0049  
                          ??_OpenUSART 004A                        OpenUSART@config 004A  
                             __Hparam0 0000                               __Lparam0 0000  
                     __size_of_OpenI2C 001E                           __Lsmallconst 0600  
                   __CFG_BOREN$SBORDIS 000000                            ??_baudUSART 0048  
                        __size_of_main 0042                           ?_System_Init 0037  
                          atan@coeff_a 064D                            atan@coeff_b 0665  
                             exp@coeff 0601                               log@coeff 0629  
                       OpenUSART@spbrg 0048                               intlevel1 0000  
                             intlevel2 0000                             _OSCCONbits 000FD3  
  __end_of_System_LowPriorityInterrupt 00A2            _System_LowPriorityInterrupt 0018  
        ??_System_LowPriorityInterrupt 0037                            _SSPCON2bits 000FC5  
                    __CFG_FOSC$INTIO67 000000  
